; ModuleID = '50/454.c'
source_filename = "50/454.c"
target datalayout = "e-m:e-p270:32:32-p271:32:32-p272:64:64-i64:64-f80:128-n8:16:32:64-S128"
target triple = "x86_64-pc-linux-gnu"

@.str = private unnamed_addr constant [3 x i8] c"%d\00", align 1
@.str.1 = private unnamed_addr constant [4 x i8] c"%d\0A\00", align 1

; Function Attrs: noinline nounwind uwtable
define dso_local i32 @main() #0 {
  %1 = alloca i32, align 4
  %2 = alloca i32, align 4
  %3 = alloca i32, align 4
  %4 = alloca [12 x i32], align 16
  %5 = alloca [12 x i32], align 16
  store i32 0, i32* %1, align 4
  %6 = getelementptr inbounds [12 x i32], [12 x i32]* %5, i64 0, i64 0
  store i32 0, i32* %6, align 16
  %7 = getelementptr inbounds [12 x i32], [12 x i32]* %4, i64 0, i64 0
  store i32 0, i32* %7, align 16
  %8 = getelementptr inbounds [12 x i32], [12 x i32]* %4, i64 0, i64 12
  store i32 31, i32* %8, align 16
  %9 = getelementptr inbounds [12 x i32], [12 x i32]* %4, i64 0, i64 10
  store i32 31, i32* %9, align 8
  %10 = getelementptr inbounds [12 x i32], [12 x i32]* %4, i64 0, i64 8
  store i32 31, i32* %10, align 16
  %11 = getelementptr inbounds [12 x i32], [12 x i32]* %4, i64 0, i64 7
  store i32 31, i32* %11, align 4
  %12 = getelementptr inbounds [12 x i32], [12 x i32]* %4, i64 0, i64 5
  store i32 31, i32* %12, align 4
  %13 = getelementptr inbounds [12 x i32], [12 x i32]* %4, i64 0, i64 3
  store i32 31, i32* %13, align 4
  %14 = getelementptr inbounds [12 x i32], [12 x i32]* %4, i64 0, i64 1
  store i32 31, i32* %14, align 4
  %15 = getelementptr inbounds [12 x i32], [12 x i32]* %4, i64 0, i64 11
  store i32 30, i32* %15, align 4
  %16 = getelementptr inbounds [12 x i32], [12 x i32]* %4, i64 0, i64 9
  store i32 30, i32* %16, align 4
  %17 = getelementptr inbounds [12 x i32], [12 x i32]* %4, i64 0, i64 6
  store i32 30, i32* %17, align 8
  %18 = getelementptr inbounds [12 x i32], [12 x i32]* %4, i64 0, i64 4
  store i32 30, i32* %18, align 16
  %19 = getelementptr inbounds [12 x i32], [12 x i32]* %4, i64 0, i64 2
  store i32 28, i32* %19, align 8
  %20 = call i32 (i8*, ...) @__isoc99_scanf(i8* getelementptr inbounds ([3 x i8], [3 x i8]* @.str, i64 0, i64 0), i32* %2)
  store i32 1, i32* %3, align 4
  br label %21

21:                                               ; preds = %51, %0
  %22 = load i32, i32* %3, align 4
  %23 = icmp sle i32 %22, 12
  br i1 %23, label %24, label %54

24:                                               ; preds = %21
  %25 = load i32, i32* %3, align 4
  %26 = sub nsw i32 %25, 1
  %27 = sext i32 %26 to i64
  %28 = getelementptr inbounds [12 x i32], [12 x i32]* %5, i64 0, i64 %27
  %29 = load i32, i32* %28, align 4
  %30 = load i32, i32* %3, align 4
  %31 = sub nsw i32 %30, 1
  %32 = sext i32 %31 to i64
  %33 = getelementptr inbounds [12 x i32], [12 x i32]* %4, i64 0, i64 %32
  %34 = load i32, i32* %33, align 4
  %35 = add nsw i32 %29, %34
  %36 = load i32, i32* %3, align 4
  %37 = sext i32 %36 to i64
  %38 = getelementptr inbounds [12 x i32], [12 x i32]* %5, i64 0, i64 %37
  store i32 %35, i32* %38, align 4
  %39 = load i32, i32* %3, align 4
  %40 = sext i32 %39 to i64
  %41 = getelementptr inbounds [12 x i32], [12 x i32]* %5, i64 0, i64 %40
  %42 = load i32, i32* %41, align 4
  %43 = load i32, i32* %2, align 4
  %44 = add nsw i32 %42, %43
  %45 = srem i32 %44, 7
  %46 = icmp eq i32 %45, 0
  br i1 %46, label %47, label %50

47:                                               ; preds = %24
  %48 = load i32, i32* %3, align 4
  %49 = call i32 (i8*, ...) @printf(i8* getelementptr inbounds ([4 x i8], [4 x i8]* @.str.1, i64 0, i64 0), i32 %48)
  br label %50

50:                                               ; preds = %47, %24
  br label %51

51:                                               ; preds = %50
  %52 = load i32, i32* %3, align 4
  %53 = add nsw i32 %52, 1
  store i32 %53, i32* %3, align 4
  br label %21

54:                                               ; preds = %21
  ret i32 0
}

declare dso_local i32 @__isoc99_scanf(i8*, ...) #1

declare dso_local i32 @printf(i8*, ...) #1


!llvm.module.flags = !{!0}
!llvm.ident = !{!1}

!0 = !{i32 1, !"wchar_size", i32 4}
!1 = !{!"clang version 10.0.0-4ubuntu1 "}
